target datalayout = "e-m:e-p270:32:32-p271:32:32-p272:64:64-i64:64-i128:128-f80:128-n8:16:32:64-S128"
target triple = "x86_64-pc-linux-gnu"

%struct.RangeCoder = type { i32, i32, i32, i32, [256 x i8], [256 x i8], ptr, ptr, ptr, i32 }
%struct.AVCodecContext = type { ptr, i32, i32, ptr, i32, i32, ptr, ptr, ptr, i64, i32, i32, ptr, i32, %struct.AVRational, %struct.AVRational, %struct.AVRational, i32, i32, i32, i32, i32, %struct.AVRational, i32, i32, i32, i32, i32, i32, i32, i32, i32, i32, i32, ptr, ptr, i32, float, float, float, float, float, float, float, float, float, i32, i32, i32, i32, i32, i32, i32, i32, i32, i32, i32, i32, ptr, ptr, ptr, i32, i32, i32, i32, i32, i32, i32, i32, i32, i32, %struct.AVChannelLayout, i32, i32, i32, i32, i32, i32, i32, i32, ptr, i32, i32, i32, float, float, i32, i32, i32, i32, i32, ptr, i64, i64, float, float, i32, i32, ptr, ptr, i32, i32, i32, i32, i32, ptr, ptr, ptr, ptr, i32, i32, [8 x i64], i32, i32, i32, i32, i32, i32, i32, ptr, ptr, i32, i32, i32, i32, i32, i32, i32, i32, i32, i32, ptr, ptr, i32, i32, ptr, ptr, ptr, ptr, i32, i32, i64, i32, i32, i64, ptr, i64, ptr, i32, ptr, i32 }
%struct.AVRational = type { i32, i32 }
%struct.AVChannelLayout = type { i32, i32, %union.anon, ptr }
%union.anon = type { i64 }
%struct.FFV1Context = type { ptr, ptr, [256 x [2 x i64]], [8 x ptr], i32, i32, i32, i32, i32, i32, i32, i32, i32, i32, i64, i32, %struct.ProgressFrame, %struct.ProgressFrame, ptr, ptr, i32, i32, i32, ptr, i32, i32, [8 x [5 x [256 x i16]]], [8 x i32], [256 x i8], [8 x ptr], i32, i32, i32, i32, i32, i32, i32, i32, i32, i32, i32, i32, i32, i32, i32, i32, i32, i32, i32, ptr, ptr, i8 }
%struct.ProgressFrame = type { ptr, ptr }
%struct.FFV1SliceContext = type { ptr, ptr, i32, i32, i32, i32, i32, i32, i32, i32, i32, i32, i32, ptr, %struct.PutBitContext, %struct.RangeCoder, i32, %union.anon.2, [4 x i32], [4 x ptr], [4 x ptr], [4 x ptr], [4 x i32], [4 x i32], [4 x ptr] }
%struct.PutBitContext = type { i32, i32, ptr, ptr, ptr }
%union.anon.2 = type { %struct.anon.3 }
%struct.anon.3 = type { [256 x [2 x i64]], [8 x ptr] }

; Function Attrs: cold nounwind optsize uwtable
define internal i32 @encode_close(ptr noundef %0) #0 {
  %2 = alloca ptr, align 8
  %3 = alloca ptr, align 8
  %4 = alloca i32, align 4
  %5 = alloca i32, align 4
  %6 = alloca ptr, align 8
  %7 = alloca i32, align 4
  store ptr %0, ptr %2, align 8, !tbaa !4
  call void @llvm.lifetime.start.p0(i64 8, ptr %3) #16
  %8 = load ptr, ptr %2, align 8, !tbaa !4
  %9 = getelementptr inbounds nuw %struct.AVCodecContext, ptr %8, i32 0, i32 6
  %10 = load ptr, ptr %9, align 8, !tbaa !9
  store ptr %10, ptr %3, align 8, !tbaa !29
  call void @llvm.lifetime.start.p0(i64 4, ptr %4) #16
  store i32 0, ptr %4, align 4, !tbaa !42
  br label %11

11:                                               ; preds = %44, %1
  %12 = load i32, ptr %4, align 4, !tbaa !42
  %13 = load ptr, ptr %3, align 8, !tbaa !29
  %14 = getelementptr inbounds nuw %struct.FFV1Context, ptr %13, i32 0, i32 46
  %15 = load i32, ptr %14, align 8, !tbaa !132
  %16 = icmp slt i32 %12, %15
  br i1 %16, label %18, label %17

17:                                               ; preds = %11
  store i32 2, ptr %5, align 4
  call void @llvm.lifetime.end.p0(i64 4, ptr %4) #16
  br label %47

18:                                               ; preds = %11
  call void @llvm.lifetime.start.p0(i64 8, ptr %6) #16
  %19 = load ptr, ptr %3, align 8, !tbaa !29
  %20 = getelementptr inbounds nuw %struct.FFV1Context, ptr %19, i32 0, i32 49
  %21 = load ptr, ptr %20, align 8, !tbaa !133
  %22 = load i32, ptr %4, align 4, !tbaa !42
  %23 = sext i32 %22 to i64
  %24 = getelementptr inbounds %struct.FFV1SliceContext, ptr %21, i64 %23
  store ptr %24, ptr %6, align 8, !tbaa !134
  call void @llvm.lifetime.start.p0(i64 4, ptr %7) #16
  store i32 0, ptr %7, align 4, !tbaa !42
  br label %25

25:                                               ; preds = %40, %18
  %26 = load i32, ptr %7, align 4, !tbaa !42
  %27 = icmp slt i32 %26, 4
  br i1 %27, label %29, label %28

28:                                               ; preds = %25
  store i32 5, ptr %5, align 4
  call void @llvm.lifetime.end.p0(i64 4, ptr %7) #16
  br label %43

29:                                               ; preds = %25
  %30 = load ptr, ptr %6, align 8, !tbaa !134
  %31 = getelementptr inbounds nuw %struct.FFV1SliceContext, ptr %30, i32 0, i32 24
  %32 = load i32, ptr %7, align 4, !tbaa !42
  %33 = sext i32 %32 to i64
  %34 = getelementptr inbounds [4 x ptr], ptr %31, i64 0, i64 %33
  call void @av_freep(ptr noundef %34)
  %35 = load ptr, ptr %6, align 8, !tbaa !134
  %36 = getelementptr inbounds nuw %struct.FFV1SliceContext, ptr %35, i32 0, i32 19
  %37 = load i32, ptr %7, align 4, !tbaa !42
  %38 = sext i32 %37 to i64
  %39 = getelementptr inbounds [4 x ptr], ptr %36, i64 0, i64 %38
  call void @av_freep(ptr noundef %39)
  br label %40

40:                                               ; preds = %29
  %41 = load i32, ptr %7, align 4, !tbaa !42
  %42 = add nsw i32 %41, 1
  store i32 %42, ptr %7, align 4, !tbaa !42
  br label %25, !llvm.loop !186

43:                                               ; preds = %28
  call void @llvm.lifetime.end.p0(i64 8, ptr %6) #16
  br label %44

44:                                               ; preds = %43
  %45 = load i32, ptr %4, align 4, !tbaa !42
  %46 = add nsw i32 %45, 1
  store i32 %46, ptr %4, align 4, !tbaa !42
  br label %11, !llvm.loop !187

47:                                               ; preds = %17
  %48 = load ptr, ptr %2, align 8, !tbaa !4
  %49 = getelementptr inbounds nuw %struct.AVCodecContext, ptr %48, i32 0, i32 98
  call void @av_freep(ptr noundef %49)
  %50 = load ptr, ptr %3, align 8, !tbaa !29
  call void @ff_ffv1_close(ptr noundef %50)
  store i32 1, ptr %5, align 4
  call void @llvm.lifetime.end.p0(i64 8, ptr %3) #16
  ret i32 0
}