; Function Attrs: cold nounwind optsize uwtable
define internal noundef i32 @encode_close(ptr noundef %0) #0 {
  %2 = getelementptr inbounds nuw i8, ptr %0, i64 32
  %3 = load ptr, ptr %2, align 8, !tbaa !4
  %4 = getelementptr inbounds nuw i8, ptr %3, i64 25208
  %5 = load i32, ptr %4, align 8, !tbaa !128
  %6 = icmp sgt i32 %5, 0
  br i1 %6, label %.lr.ph, label %._crit_edge

.lr.ph:                                           ; preds = %1
  %7 = getelementptr inbounds nuw i8, ptr %3, i64 25224
  br label %9

._crit_edge:                                      ; preds = %14, %1
  %8 = getelementptr inbounds nuw i8, ptr %0, i64 496
  tail call void @av_freep(ptr noundef nonnull %8) #19
  tail call void @ff_ffv1_close(ptr noundef nonnull %3) #19
  ret i32 0

9:                                                ; preds = %.lr.ph, %14
  %indvars.iv17 = phi i64 [ 0, %.lr.ph ], [ %indvars.iv.next18, %14 ]
  %10 = load ptr, ptr %7, align 8, !tbaa !129
  %11 = getelementptr inbounds nuw %struct.FFV1SliceContext, ptr %10, i64 %indvars.iv17
  %12 = getelementptr inbounds nuw i8, ptr %11, i64 4976
  %13 = getelementptr inbounds nuw i8, ptr %11, i64 4848
  br label %18

14:                                               ; preds = %18
  %indvars.iv.next18 = add nuw nsw i64 %indvars.iv17, 1
  %15 = load i32, ptr %4, align 8, !tbaa !128
  %16 = sext i32 %15 to i64
  %17 = icmp slt i64 %indvars.iv.next18, %16
  br i1 %17, label %9, label %._crit_edge, !llvm.loop !184

18:                                               ; preds = %9, %18
  %indvars.iv = phi i64 [ 0, %9 ], [ %indvars.iv.next, %18 ]
  %19 = getelementptr inbounds nuw [4 x ptr], ptr %12, i64 0, i64 %indvars.iv
  tail call void @av_freep(ptr noundef nonnull %19) #19
  %20 = getelementptr inbounds nuw [4 x ptr], ptr %13, i64 0, i64 %indvars.iv
  tail call void @av_freep(ptr noundef nonnull %20) #19
  %indvars.iv.next = add nuw nsw i64 %indvars.iv, 1
  %exitcond.not = icmp eq i64 %indvars.iv.next, 4
  br i1 %exitcond.not, label %14, label %18, !llvm.loop !185
}